target datalayout = "e-m:e-p270:32:32-p271:32:32-p272:64:64-i64:64-i128:128-f80:128-n8:16:32:64-S128"
target triple = "x86_64-pc-linux-gnu"

; Function Attrs: mustprogress uwtable
define noundef ptr @_ZNK3net30QuicMultipathSentPacketManager26SustainedBandwidthRecorderEv(ptr noundef nonnull align 8 dereferenceable(40) %0) unnamed_addr #0 align 2 {
  %2 = alloca ptr, align 8
  %3 = alloca ptr, align 8
  %4 = alloca ptr, align 8
  %5 = alloca i32, align 4
  store ptr %0, ptr %3, align 8, !tbaa !3
  %6 = load ptr, ptr %3, align 8
  call void @llvm.lifetime.start.p0(i64 8, ptr %4) #15
  %7 = call noundef ptr @_ZNK3net30QuicMultipathSentPacketManager38MaybeGetSentPacketManagerForActivePathEh(ptr noundef nonnull align 8 dereferenceable(40) %6, i8 noundef zeroext 0)
  store ptr %7, ptr %4, align 8, !tbaa !8
  %8 = load ptr, ptr %4, align 8, !tbaa !8
  %9 = icmp eq ptr %8, null
  br i1 %9, label %10, label %11

10:                                               ; preds = %1
  store ptr null, ptr %2, align 8
  store i32 1, ptr %5, align 4
  br label %17

11:                                               ; preds = %1
  %12 = load ptr, ptr %4, align 8, !tbaa !8
  %13 = load ptr, ptr %12, align 8, !tbaa !12
  %14 = getelementptr inbounds ptr, ptr %13, i64 21
  %15 = load ptr, ptr %14, align 8
  %16 = call noundef ptr %15(ptr noundef nonnull align 8 dereferenceable(8) %12)
  store ptr %16, ptr %2, align 8
  store i32 1, ptr %5, align 4
  br label %17

17:                                               ; preds = %11, %10
  call void @llvm.lifetime.end.p0(i64 8, ptr %4) #15
  %18 = load ptr, ptr %2, align 8
  ret ptr %18
}